; Function Attrs: nounwind uwtable
define dso_local noundef zeroext i1 @_bt_vacuum_needs_cleanup(ptr noundef %0) local_unnamed_addr #0 {
  %2 = tail call i32 @ReadBuffer(ptr noundef %0, i32 noundef 0) #10
  tail call void @LockBuffer(i32 noundef %2, i32 noundef 1) #10
  tail call void @_bt_checkpage(ptr noundef %0, i32 noundef %2)
  %3 = icmp slt i32 %2, 0
  br i1 %3, label %4, label %10

4:                                                ; preds = %1
  %5 = load ptr, ptr @LocalBufferBlockPointers, align 8
  %6 = xor i32 %2, -1
  %7 = zext nneg i32 %6 to i64
  %8 = getelementptr inbounds nuw ptr, ptr %5, i64 %7
  %9 = load ptr, ptr %8, align 8
  br label %BufferGetPage.exit

10:                                               ; preds = %1
  %11 = load ptr, ptr @BufferBlocks, align 8
  %12 = add nsw i32 %2, -1
  %13 = sext i32 %12 to i64
  %14 = shl nsw i64 %13, 13
  %15 = getelementptr inbounds nuw i8, ptr %11, i64 %14
  br label %BufferGetPage.exit

BufferGetPage.exit:                               ; preds = %4, %10
  %.0.i.i = phi ptr [ %9, %4 ], [ %15, %10 ]
  %16 = getelementptr inbounds nuw i8, ptr %.0.i.i, i64 28
  %17 = load i32, ptr %16, align 4
  %18 = icmp ult i32 %17, 3
  br i1 %18, label %19, label %20

19:                                               ; preds = %BufferGetPage.exit
  tail call void @LockBuffer(i32 noundef %2, i32 noundef 0) #10
  tail call void @ReleaseBuffer(i32 noundef %2) #10
  br label %28

20:                                               ; preds = %BufferGetPage.exit
  %21 = getelementptr inbounds nuw i8, ptr %.0.i.i, i64 48
  %22 = load i32, ptr %21, align 8
  tail call void @LockBuffer(i32 noundef %2, i32 noundef 0) #10
  tail call void @ReleaseBuffer(i32 noundef %2) #10
  %.not = icmp eq i32 %22, 0
  br i1 %.not, label %27, label %23

23:                                               ; preds = %20
  %24 = tail call i32 @RelationGetNumberOfBlocksInFork(ptr noundef %0, i32 noundef 0) #10
  %25 = udiv i32 %24, 20
  %26 = icmp ugt i32 %22, %25
  br i1 %26, label %28, label %27

27:                                               ; preds = %23, %20
  br label %28

28:                                               ; preds = %23, %27, %19
  %.0 = phi i1 [ true, %19 ], [ false, %27 ], [ true, %23 ]
  ret i1 %.0
}